target datalayout = "e-m:e-p270:32:32-p271:32:32-p272:64:64-i64:64-i128:128-f80:128-n8:16:32:64-S128"
target triple = "x86_64-pc-linux-gnu"

; Function Attrs: nounwind uwtable
define i32 @tjEncodeYUV2(ptr noundef %0, ptr noundef %1, i32 noundef %2, i32 noundef %3, i32 noundef %4, i32 noundef %5, ptr noundef %6, i32 noundef %7, i32 noundef %8) #0 {
  %10 = alloca ptr, align 8
  %11 = alloca ptr, align 8
  %12 = alloca i32, align 4
  %13 = alloca i32, align 4
  %14 = alloca i32, align 4
  %15 = alloca i32, align 4
  %16 = alloca ptr, align 8
  %17 = alloca i32, align 4
  %18 = alloca i32, align 4
  store ptr %0, ptr %10, align 8
  store ptr %1, ptr %11, align 8
  store i32 %2, ptr %12, align 4
  store i32 %3, ptr %13, align 4
  store i32 %4, ptr %14, align 4
  store i32 %5, ptr %15, align 4
  store ptr %6, ptr %16, align 8
  store i32 %7, ptr %17, align 4
  store i32 %8, ptr %18, align 4
  %19 = load ptr, ptr %10, align 8
  %20 = load ptr, ptr %11, align 8
  %21 = load i32, ptr %12, align 4
  %22 = load i32, ptr %13, align 4
  %23 = load i32, ptr %14, align 4
  %24 = load i32, ptr %15, align 4
  %25 = load ptr, ptr %16, align 8
  %26 = load i32, ptr %17, align 4
  %27 = load i32, ptr %18, align 4
  %28 = call i32 @tjEncodeYUV3(ptr noundef %19, ptr noundef %20, i32 noundef %21, i32 noundef %22, i32 noundef %23, i32 noundef %24, ptr noundef %25, i32 noundef 4, i32 noundef %26, i32 noundef %27)
  ret i32 %28
}

; Function Attrs: nounwind uwtable
define internal i32 @getPixelFormat(i32 noundef %0, i32 noundef %1) #0 {
  %3 = alloca i32, align 4
  %4 = alloca i32, align 4
  %5 = alloca i32, align 4
  store i32 %0, ptr %4, align 4
  store i32 %1, ptr %5, align 4
  %6 = load i32, ptr %4, align 4
  %7 = icmp eq i32 %6, 1
  br i1 %7, label %8, label %9

8:                                                ; preds = %2
  store i32 6, ptr %3, align 4
  br label %38

9:                                                ; preds = %2
  %10 = load i32, ptr %4, align 4
  %11 = icmp eq i32 %10, 3
  br i1 %11, label %12, label %18

12:                                               ; preds = %9
  %13 = load i32, ptr %5, align 4
  %14 = and i32 %13, 1
  %15 = icmp ne i32 %14, 0
  br i1 %15, label %16, label %17

16:                                               ; preds = %12
  store i32 1, ptr %3, align 4
  br label %38

17:                                               ; preds = %12
  store i32 0, ptr %3, align 4
  br label %38

18:                                               ; preds = %9
  %19 = load i32, ptr %4, align 4
  %20 = icmp eq i32 %19, 4
  br i1 %20, label %21, label %37

21:                                               ; preds = %18
  %22 = load i32, ptr %5, align 4
  %23 = and i32 %22, 64
  %24 = icmp ne i32 %23, 0
  br i1 %24, label %25, label %31

25:                                               ; preds = %21
  %26 = load i32, ptr %5, align 4
  %27 = and i32 %26, 1
  %28 = icmp ne i32 %27, 0
  br i1 %28, label %29, label %30

29:                                               ; preds = %25
  store i32 4, ptr %3, align 4
  br label %38

30:                                               ; preds = %25
  store i32 5, ptr %3, align 4
  br label %38

31:                                               ; preds = %21
  %32 = load i32, ptr %5, align 4
  %33 = and i32 %32, 1
  %34 = icmp ne i32 %33, 0
  br i1 %34, label %35, label %36

35:                                               ; preds = %31
  store i32 3, ptr %3, align 4
  br label %38

36:                                               ; preds = %31
  store i32 2, ptr %3, align 4
  br label %38

37:                                               ; preds = %18
  store i32 -1, ptr %3, align 4
  br label %38

38:                                               ; preds = %37, %36, %35, %30, %29, %17, %16, %8
  %39 = load i32, ptr %3, align 4
  ret i32 %39
}

; Function Attrs: nounwind uwtable
define i32 @tjEncodeYUV(ptr noundef %0, ptr noundef %1, i32 noundef %2, i32 noundef %3, i32 noundef %4, i32 noundef %5, ptr noundef %6, i32 noundef %7, i32 noundef %8) #0 {
  %10 = alloca ptr, align 8
  %11 = alloca ptr, align 8
  %12 = alloca i32, align 4
  %13 = alloca i32, align 4
  %14 = alloca i32, align 4
  %15 = alloca i32, align 4
  %16 = alloca ptr, align 8
  %17 = alloca i32, align 4
  %18 = alloca i32, align 4
  store ptr %0, ptr %10, align 8
  store ptr %1, ptr %11, align 8
  store i32 %2, ptr %12, align 4
  store i32 %3, ptr %13, align 4
  store i32 %4, ptr %14, align 4
  store i32 %5, ptr %15, align 4
  store ptr %6, ptr %16, align 8
  store i32 %7, ptr %17, align 4
  store i32 %8, ptr %18, align 4
  %19 = load ptr, ptr %10, align 8
  %20 = load ptr, ptr %11, align 8
  %21 = load i32, ptr %12, align 4
  %22 = load i32, ptr %13, align 4
  %23 = load i32, ptr %14, align 4
  %24 = load i32, ptr %15, align 4
  %25 = load i32, ptr %18, align 4
  %26 = call i32 @getPixelFormat(i32 noundef %24, i32 noundef %25)
  %27 = load ptr, ptr %16, align 8
  %28 = load i32, ptr %17, align 4
  %29 = load i32, ptr %18, align 4
  %30 = call i32 @tjEncodeYUV2(ptr noundef %19, ptr noundef %20, i32 noundef %21, i32 noundef %22, i32 noundef %23, i32 noundef %26, ptr noundef %27, i32 noundef %28, i32 noundef %29)
  ret i32 %30
}