; Function Attrs: nounwind uwtable
define range(i32 -1, 1) i32 @tjEncodeYUV(ptr noundef %0, ptr noundef %1, i32 noundef %2, i32 noundef %3, i32 noundef %4, i32 noundef %5, ptr noundef %6, i32 noundef %7, i32 noundef %8) local_unnamed_addr #0 {
  switch i32 %5, label %17 [
    i32 1, label %getPixelFormat.exit
    i32 3, label %10
    i32 4, label %12
  ]

10:                                               ; preds = %9
  %11 = and i32 %8, 1
  br label %getPixelFormat.exit

12:                                               ; preds = %9
  %13 = and i32 %8, 64
  %.not.i = icmp eq i32 %13, 0
  %14 = and i32 %8, 1
  br i1 %.not.i, label %16, label %15

15:                                               ; preds = %12
  %.12.i = xor i32 %14, 5
  br label %getPixelFormat.exit

16:                                               ; preds = %12
  %.13.i = or disjoint i32 %14, 2
  br label %getPixelFormat.exit

17:                                               ; preds = %9
  br label %getPixelFormat.exit

getPixelFormat.exit:                              ; preds = %9, %10, %15, %16, %17
  %.0.i = phi i32 [ -1, %17 ], [ 6, %9 ], [ %11, %10 ], [ %.12.i, %15 ], [ %.13.i, %16 ]
  %18 = tail call range(i32 -1, 1) i32 @tjEncodeYUV3(ptr noundef %0, ptr noundef %1, i32 noundef %2, i32 noundef %3, i32 noundef %4, i32 noundef %.0.i, ptr noundef %6, i32 noundef 4, i32 noundef %7, i32 noundef %8)
  ret i32 %18
}